target datalayout = "e-m:e-p270:32:32-p271:32:32-p272:64:64-i64:64-i128:128-f80:128-n8:16:32:64-S128"
target triple = "x86_64-pc-linux-gnu"

; Function Attrs: mustprogress nounwind uwtable
define hidden noundef i32 @_ZN4goal8mk_unionENS_9precisionES0_(i32 noundef %0, i32 noundef %1) #4 align 2 {
  %3 = alloca i32, align 4
  %4 = alloca i32, align 4
  %5 = alloca i32, align 4
  store i32 %0, ptr %4, align 4, !tbaa !3
  store i32 %1, ptr %5, align 4, !tbaa !3
  %6 = load i32, ptr %4, align 4, !tbaa !3
  %7 = icmp eq i32 %6, 0
  br i1 %7, label %8, label %10

8:                                                ; preds = %2
  %9 = load i32, ptr %5, align 4, !tbaa !3
  store i32 %9, ptr %3, align 4
  br label %22

10:                                               ; preds = %2
  %11 = load i32, ptr %5, align 4, !tbaa !3
  %12 = icmp eq i32 %11, 0
  br i1 %12, label %13, label %15

13:                                               ; preds = %10
  %14 = load i32, ptr %4, align 4, !tbaa !3
  store i32 %14, ptr %3, align 4
  br label %22

15:                                               ; preds = %10
  %16 = load i32, ptr %4, align 4, !tbaa !3
  %17 = load i32, ptr %5, align 4, !tbaa !3
  %18 = icmp ne i32 %16, %17
  br i1 %18, label %19, label %20

19:                                               ; preds = %15
  store i32 3, ptr %3, align 4
  br label %22

20:                                               ; preds = %15
  %21 = load i32, ptr %4, align 4, !tbaa !3
  store i32 %21, ptr %3, align 4
  br label %22

22:                                               ; preds = %20, %19, %13, %8
  %23 = load i32, ptr %3, align 4
  ret i32 %23
}