; Function Attrs: mustprogress nofree norecurse nosync nounwind willreturn memory(none) uwtable
define hidden noundef i32 @_ZN4goal8mk_unionENS_9precisionES0_(i32 noundef %0, i32 noundef %1) local_unnamed_addr #3 align 2 {
  %3 = icmp eq i32 %0, 0
  br i1 %3, label %7, label %4

4:                                                ; preds = %2
  %5 = icmp eq i32 %1, 0
  br i1 %5, label %7, label %6

6:                                                ; preds = %4
  %.not = icmp eq i32 %0, %1
  %. = select i1 %.not, i32 %0, i32 3
  br label %7

7:                                                ; preds = %6, %4, %2
  %.0 = phi i32 [ %1, %2 ], [ %0, %4 ], [ %., %6 ]
  ret i32 %.0
}